; Function Attrs: mustprogress nounwind uwtable
define internal noundef zeroext i1 @"_ZN4llvm12function_refIFbNS_9StringRefEjEE11callback_fnIZNS_2gi13PatternParser16parsePatFragImplEPKNS_6RecordEE3$_1EEblS1_j"(i64 noundef %0, ptr %1, i64 %2, i32 noundef %3) #0 align 2 {
  %5 = inttoptr i64 %0 to ptr
  %.val = load ptr, ptr %5, align 8
  %.val.val = load ptr, ptr %.val, align 8
  %6 = tail call { ptr, i64 } @_ZN4llvm12insertStrRefENS_9StringRefE(ptr %1, i64 %2) #16
  %7 = extractvalue { ptr, i64 } %6, 0
  %8 = extractvalue { ptr, i64 } %6, 1
  tail call void @_ZN4llvm2gi7PatFrag10addInParamENS_9StringRefENS1_9ParamKindE(ptr noundef nonnull align 8 dereferenceable(288) %.val.val, ptr %7, i64 %8, i32 noundef %3) #16
  ret i1 true
}